; Function Attrs: nounwind uwtable
define ptr @l_Lean_Meta_Grind_collectMatchCondLhssAndAbstract_go___lambda__1(ptr noundef %0, ptr noundef %1, ptr noundef %2, ptr noundef %3, ptr noundef %4, ptr noundef %5, ptr noundef %6, ptr noundef %7, ptr noundef %8, ptr noundef %9, ptr noundef %10, ptr noundef %11, ptr noundef %12, ptr noundef %13, ptr noundef %14, ptr noundef %15, ptr noundef %16, ptr noundef %17) local_unnamed_addr #0 {
  %19 = ptrtoint ptr %0 to i64
  %20 = and i64 %19, 1
  %.not = icmp eq i64 %20, 0
  br i1 %.not, label %.critedge.i, label %21, !prof !15

21:                                               ; preds = %18
  %22 = lshr i64 %19, 1
  %23 = add nuw i64 %22, 1
  %24 = icmp sgt i64 %23, -1
  br i1 %24, label %25, label %29, !prof !9

25:                                               ; preds = %21
  %26 = shl nuw i64 %23, 1
  %27 = or disjoint i64 %26, 1
  %28 = inttoptr i64 %27 to ptr
  br label %lean_nat_add.exit

29:                                               ; preds = %21
  %30 = tail call ptr @lean_big_usize_to_nat(i64 noundef range(i64 0, -1) %23) #4
  br label %lean_nat_add.exit

.critedge.i:                                      ; preds = %18
  %31 = tail call ptr @lean_nat_big_add(ptr noundef %0, ptr noundef nonnull inttoptr (i64 3 to ptr)) #4
  br label %lean_nat_add.exit

lean_nat_add.exit:                                ; preds = %29, %25, %.critedge.i
  %.0.i = phi ptr [ %31, %.critedge.i ], [ %28, %25 ], [ %30, %29 ]
  %32 = ptrtoint ptr %8 to i64
  %33 = and i64 %32, 1
  %.not29 = icmp eq i64 %33, 0
  br i1 %.not29, label %34, label %lean_inc.exit

34:                                               ; preds = %lean_nat_add.exit
  %.val.i = load i32, ptr %8, align 4, !tbaa !4
  %35 = icmp sgt i32 %.val.i, 0
  br i1 %35, label %36, label %38, !prof !9

36:                                               ; preds = %34
  %37 = add nuw i32 %.val.i, 1
  store i32 %37, ptr %8, align 4, !tbaa !4
  br label %lean_inc.exit

38:                                               ; preds = %34
  %.not.i = icmp eq i32 %.val.i, 0
  br i1 %.not.i, label %lean_inc.exit, label %39

39:                                               ; preds = %38
  tail call void @lean_inc_ref_cold(ptr noundef nonnull %8) #4
  br label %lean_inc.exit

lean_inc.exit:                                    ; preds = %39, %38, %36, %lean_nat_add.exit
  %40 = tail call ptr @lean_array_push(ptr noundef %1, ptr noundef %8) #4
  %41 = tail call ptr @lean_array_push(ptr noundef %2, ptr noundef nonnull inttoptr (i64 1 to ptr)) #4
  %42 = tail call ptr @lean_array_push(ptr noundef %3, ptr noundef %8) #4
  %43 = tail call ptr @lean_array_push(ptr noundef %4, ptr noundef %5) #4
  %44 = tail call ptr @l_Lean_Meta_Grind_collectMatchCondLhssAndAbstract_go(ptr noundef %6, ptr noundef %7, ptr noundef %.0.i, ptr noundef %40, ptr noundef %41, ptr noundef %42, ptr noundef %43, ptr noundef %9, ptr noundef %10, ptr noundef %11, ptr noundef %12, ptr noundef %13, ptr noundef %14, ptr noundef %15, ptr noundef %16, ptr noundef %17)
  ret ptr %44
}